; Function Attrs: mustprogress uwtable
define hidden void @_Z9print_msgPSoPKcS1_P13__va_list_tag(ptr noundef %0, ptr noundef %1, ptr noundef readonly captures(none) %2, ptr noundef %3) local_unnamed_addr #5 {
  %.not = icmp eq ptr %0, null
  br i1 %.not, label %19, label %5

5:                                                ; preds = %4
  %.not.i = icmp eq ptr %1, null
  br i1 %.not.i, label %6, label %14

6:                                                ; preds = %5
  %7 = load ptr, ptr %0, align 8, !tbaa !16
  %8 = getelementptr i8, ptr %7, i64 -24
  %9 = load i64, ptr %8, align 8
  %10 = getelementptr inbounds i8, ptr %0, i64 %9
  %11 = getelementptr inbounds nuw i8, ptr %10, i64 32
  %12 = load i32, ptr %11, align 8, !tbaa !18
  %13 = or i32 %12, 1
  tail call void @_ZNSt9basic_iosIcSt11char_traitsIcEE5clearESt12_Ios_Iostate(ptr noundef nonnull align 8 dereferenceable(264) %10, i32 noundef %13)
  br label %_ZStlsISt11char_traitsIcEERSt13basic_ostreamIcT_ES5_PKc.exit

14:                                               ; preds = %5
  %15 = tail call noundef i64 @strlen(ptr noundef nonnull dereferenceable(1) %1) #22
  %16 = tail call noundef nonnull align 8 dereferenceable(8) ptr @_ZSt16__ostream_insertIcSt11char_traitsIcEERSt13basic_ostreamIT_T0_ES6_PKS3_l(ptr noundef nonnull align 8 dereferenceable(8) %0, ptr noundef nonnull %1, i64 noundef %15)
  br label %_ZStlsISt11char_traitsIcEERSt13basic_ostreamIcT_ES5_PKc.exit

_ZStlsISt11char_traitsIcEERSt13basic_ostreamIcT_ES5_PKc.exit: ; preds = %6, %14
  tail call void @_Z14format2ostreamRSoPKcP13__va_list_tag(ptr noundef nonnull align 8 dereferenceable(8) %0, ptr noundef %2, ptr noundef %3)
  %17 = tail call noundef nonnull align 8 dereferenceable(8) ptr @_ZSt16__ostream_insertIcSt11char_traitsIcEERSt13basic_ostreamIT_T0_ES6_PKS3_l(ptr noundef nonnull align 8 dereferenceable(8) %0, ptr noundef nonnull @.str, i64 noundef 1)
  %18 = tail call noundef nonnull align 8 dereferenceable(8) ptr @_ZNSo5flushEv(ptr noundef nonnull align 8 dereferenceable(8) %0)
  br label %27

19:                                               ; preds = %4
  %20 = load i8, ptr @_ZL16g_use_std_stdout, align 1, !tbaa !3, !range !28, !noundef !29
  %21 = trunc nuw i8 %20 to i1
  %22 = load ptr, ptr @stdout, align 8
  %23 = load ptr, ptr @stderr, align 8
  %24 = select i1 %21, ptr %22, ptr %23
  %fputs = tail call i32 @fputs(ptr %1, ptr %24)
  %25 = tail call i32 @vfprintf(ptr noundef %24, ptr noundef %2, ptr noundef %3) #22
  %fputc = tail call i32 @fputc(i32 10, ptr %24)
  %26 = tail call i32 @fflush(ptr noundef %24)
  br label %27

27:                                               ; preds = %19, %_ZStlsISt11char_traitsIcEERSt13basic_ostreamIcT_ES5_PKc.exit
  ret void
}